; Function Attrs: mustprogress nofree nounwind willreturn memory(write, argmem: readwrite) uwtable
define dso_local double @arhosek_tristim_skymodel_radiance(ptr noundef readonly captures(none) %0, double noundef %1, double noundef %2, i32 noundef %3) local_unnamed_addr #4 {
  %5 = sext i32 %3 to i64
  %6 = getelementptr inbounds [11 x [9 x double]], ptr %0, i64 0, i64 %5
  %7 = getelementptr inbounds nuw i8, ptr %6, i64 32
  %8 = load double, ptr %7, align 8, !tbaa !8
  %9 = fmul double %2, %8
  %10 = tail call double @exp(double noundef %9) #12, !tbaa !4
  %11 = tail call double @cos(double noundef %2) #12, !tbaa !4
  %12 = tail call double @cos(double noundef %2) #12, !tbaa !4
  %13 = fmul double %11, %12
  %14 = tail call double @cos(double noundef %2) #12, !tbaa !4
  %15 = tail call double @cos(double noundef %2) #12, !tbaa !4
  %16 = tail call double @llvm.fmuladd.f64(double %14, double %15, double 1.000000e+00)
  %17 = getelementptr inbounds nuw i8, ptr %6, i64 64
  %18 = load double, ptr %17, align 8, !tbaa !8
  %19 = tail call double @llvm.fmuladd.f64(double %18, double %18, double 1.000000e+00)
  %20 = tail call double @cos(double noundef %2) #12, !tbaa !4
  %21 = fmul double %18, -2.000000e+00
  %22 = tail call double @llvm.fmuladd.f64(double %21, double %20, double %19)
  %23 = tail call double @pow(double noundef %22, double noundef 1.500000e+00) #12, !tbaa !4
  %24 = fdiv double %16, %23
  %25 = tail call double @cos(double noundef %1) #12, !tbaa !4
  %26 = tail call double @sqrt(double noundef %25) #12, !tbaa !4
  %27 = load double, ptr %6, align 8, !tbaa !8
  %28 = getelementptr inbounds nuw i8, ptr %6, i64 8
  %29 = load double, ptr %28, align 8, !tbaa !8
  %30 = tail call double @cos(double noundef %1) #12, !tbaa !4
  %31 = fadd double %30, 1.000000e-02
  %32 = fdiv double %29, %31
  %33 = tail call double @exp(double noundef %32) #12, !tbaa !4
  %34 = tail call double @llvm.fmuladd.f64(double %27, double %33, double 1.000000e+00)
  %35 = getelementptr inbounds nuw i8, ptr %6, i64 16
  %36 = load double, ptr %35, align 8, !tbaa !8
  %37 = getelementptr inbounds nuw i8, ptr %6, i64 24
  %38 = load double, ptr %37, align 8, !tbaa !8
  %39 = tail call double @llvm.fmuladd.f64(double %38, double %10, double %36)
  %40 = getelementptr inbounds nuw i8, ptr %6, i64 40
  %41 = load double, ptr %40, align 8, !tbaa !8
  %42 = tail call double @llvm.fmuladd.f64(double %41, double %13, double %39)
  %43 = getelementptr inbounds nuw i8, ptr %6, i64 48
  %44 = load double, ptr %43, align 8, !tbaa !8
  %45 = tail call double @llvm.fmuladd.f64(double %44, double %24, double %42)
  %46 = getelementptr inbounds nuw i8, ptr %6, i64 56
  %47 = load double, ptr %46, align 8, !tbaa !8
  %48 = tail call double @llvm.fmuladd.f64(double %47, double %26, double %45)
  %49 = fmul double %34, %48
  %50 = getelementptr inbounds nuw i8, ptr %0, i64 792
  %51 = getelementptr inbounds [11 x double], ptr %50, i64 0, i64 %5
  %52 = load double, ptr %51, align 8, !tbaa !8
  %53 = fmul double %52, %49
  ret double %53
}